; ModuleID = '8/48.c'
source_filename = "8/48.c"
target datalayout = "e-m:e-p270:32:32-p271:32:32-p272:64:64-i64:64-f80:128-n8:16:32:64-S128"
target triple = "x86_64-pc-linux-gnu"

@.str = private unnamed_addr constant [3 x i8] c"%d\00", align 1
@.str.1 = private unnamed_addr constant [4 x i8] c" %d\00", align 1
@.str.2 = private unnamed_addr constant [5 x i8] c"%d%d\00", align 1

; Function Attrs: noinline nounwind uwtable
define dso_local void @f1(i32* %0, i32* %1, i32 %2, i32 %3) #0 {
  %5 = alloca i32*, align 8
  %6 = alloca i32*, align 8
  %7 = alloca i32, align 4
  %8 = alloca i32, align 4
  %9 = alloca i32, align 4
  %10 = alloca i32, align 4
  %11 = alloca i32, align 4
  store i32* %0, i32** %5, align 8
  store i32* %1, i32** %6, align 8
  store i32 %2, i32* %7, align 4
  store i32 %3, i32* %8, align 4
  store i32 0, i32* %9, align 4
  br label %12

12:                                               ; preds = %64, %4
  %13 = load i32, i32* %9, align 4
  %14 = load i32, i32* %7, align 4
  %15 = icmp slt i32 %13, %14
  br i1 %15, label %16, label %67

16:                                               ; preds = %12
  store i32 0, i32* %10, align 4
  br label %17

17:                                               ; preds = %60, %16
  %18 = load i32, i32* %10, align 4
  %19 = load i32, i32* %7, align 4
  %20 = load i32, i32* %9, align 4
  %21 = sub nsw i32 %19, %20
  %22 = sub nsw i32 %21, 1
  %23 = icmp slt i32 %18, %22
  br i1 %23, label %24, label %63

24:                                               ; preds = %17
  %25 = load i32*, i32** %5, align 8
  %26 = load i32, i32* %10, align 4
  %27 = sext i32 %26 to i64
  %28 = getelementptr inbounds i32, i32* %25, i64 %27
  %29 = load i32, i32* %28, align 4
  %30 = load i32*, i32** %5, align 8
  %31 = load i32, i32* %10, align 4
  %32 = add nsw i32 %31, 1
  %33 = sext i32 %32 to i64
  %34 = getelementptr inbounds i32, i32* %30, i64 %33
  %35 = load i32, i32* %34, align 4
  %36 = icmp sgt i32 %29, %35
  br i1 %36, label %37, label %59

37:                                               ; preds = %24
  %38 = load i32*, i32** %5, align 8
  %39 = load i32, i32* %10, align 4
  %40 = sext i32 %39 to i64
  %41 = getelementptr inbounds i32, i32* %38, i64 %40
  %42 = load i32, i32* %41, align 4
  store i32 %42, i32* %11, align 4
  %43 = load i32*, i32** %5, align 8
  %44 = load i32, i32* %10, align 4
  %45 = add nsw i32 %44, 1
  %46 = sext i32 %45 to i64
  %47 = getelementptr inbounds i32, i32* %43, i64 %46
  %48 = load i32, i32* %47, align 4
  %49 = load i32*, i32** %5, align 8
  %50 = load i32, i32* %10, align 4
  %51 = sext i32 %50 to i64
  %52 = getelementptr inbounds i32, i32* %49, i64 %51
  store i32 %48, i32* %52, align 4
  %53 = load i32, i32* %11, align 4
  %54 = load i32*, i32** %5, align 8
  %55 = load i32, i32* %10, align 4
  %56 = add nsw i32 %55, 1
  %57 = sext i32 %56 to i64
  %58 = getelementptr inbounds i32, i32* %54, i64 %57
  store i32 %53, i32* %58, align 4
  br label %59

59:                                               ; preds = %37, %24
  br label %60

60:                                               ; preds = %59
  %61 = load i32, i32* %10, align 4
  %62 = add nsw i32 %61, 1
  store i32 %62, i32* %10, align 4
  br label %17

63:                                               ; preds = %17
  br label %64

64:                                               ; preds = %63
  %65 = load i32, i32* %9, align 4
  %66 = add nsw i32 %65, 1
  store i32 %66, i32* %9, align 4
  br label %12

67:                                               ; preds = %12
  store i32 0, i32* %9, align 4
  br label %68

68:                                               ; preds = %120, %67
  %69 = load i32, i32* %9, align 4
  %70 = load i32, i32* %8, align 4
  %71 = icmp slt i32 %69, %70
  br i1 %71, label %72, label %123

72:                                               ; preds = %68
  store i32 0, i32* %10, align 4
  br label %73

73:                                               ; preds = %116, %72
  %74 = load i32, i32* %10, align 4
  %75 = load i32, i32* %8, align 4
  %76 = load i32, i32* %9, align 4
  %77 = sub nsw i32 %75, %76
  %78 = sub nsw i32 %77, 1
  %79 = icmp slt i32 %74, %78
  br i1 %79, label %80, label %119

80:                                               ; preds = %73
  %81 = load i32*, i32** %6, align 8
  %82 = load i32, i32* %10, align 4
  %83 = sext i32 %82 to i64
  %84 = getelementptr inbounds i32, i32* %81, i64 %83
  %85 = load i32, i32* %84, align 4
  %86 = load i32*, i32** %6, align 8
  %87 = load i32, i32* %10, align 4
  %88 = add nsw i32 %87, 1
  %89 = sext i32 %88 to i64
  %90 = getelementptr inbounds i32, i32* %86, i64 %89
  %91 = load i32, i32* %90, align 4
  %92 = icmp sgt i32 %85, %91
  br i1 %92, label %93, label %115

93:                                               ; preds = %80
  %94 = load i32*, i32** %6, align 8
  %95 = load i32, i32* %10, align 4
  %96 = sext i32 %95 to i64
  %97 = getelementptr inbounds i32, i32* %94, i64 %96
  %98 = load i32, i32* %97, align 4
  store i32 %98, i32* %11, align 4
  %99 = load i32*, i32** %6, align 8
  %100 = load i32, i32* %10, align 4
  %101 = add nsw i32 %100, 1
  %102 = sext i32 %101 to i64
  %103 = getelementptr inbounds i32, i32* %99, i64 %102
  %104 = load i32, i32* %103, align 4
  %105 = load i32*, i32** %6, align 8
  %106 = load i32, i32* %10, align 4
  %107 = sext i32 %106 to i64
  %108 = getelementptr inbounds i32, i32* %105, i64 %107
  store i32 %104, i32* %108, align 4
  %109 = load i32, i32* %11, align 4
  %110 = load i32*, i32** %6, align 8
  %111 = load i32, i32* %10, align 4
  %112 = add nsw i32 %111, 1
  %113 = sext i32 %112 to i64
  %114 = getelementptr inbounds i32, i32* %110, i64 %113
  store i32 %109, i32* %114, align 4
  br label %115

115:                                              ; preds = %93, %80
  br label %116

116:                                              ; preds = %115
  %117 = load i32, i32* %10, align 4
  %118 = add nsw i32 %117, 1
  store i32 %118, i32* %10, align 4
  br label %73

119:                                              ; preds = %73
  br label %120

120:                                              ; preds = %119
  %121 = load i32, i32* %9, align 4
  %122 = add nsw i32 %121, 1
  store i32 %122, i32* %9, align 4
  br label %68

123:                                              ; preds = %68
  %124 = load i32*, i32** %5, align 8
  %125 = getelementptr inbounds i32, i32* %124, i64 0
  %126 = load i32, i32* %125, align 4
  %127 = call i32 (i8*, ...) @printf(i8* getelementptr inbounds ([3 x i8], [3 x i8]* @.str, i64 0, i64 0), i32 %126)
  store i32 1, i32* %9, align 4
  br label %128

128:                                              ; preds = %139, %123
  %129 = load i32, i32* %9, align 4
  %130 = load i32, i32* %7, align 4
  %131 = icmp slt i32 %129, %130
  br i1 %131, label %132, label %142

132:                                              ; preds = %128
  %133 = load i32*, i32** %5, align 8
  %134 = load i32, i32* %9, align 4
  %135 = sext i32 %134 to i64
  %136 = getelementptr inbounds i32, i32* %133, i64 %135
  %137 = load i32, i32* %136, align 4
  %138 = call i32 (i8*, ...) @printf(i8* getelementptr inbounds ([4 x i8], [4 x i8]* @.str.1, i64 0, i64 0), i32 %137)
  br label %139

139:                                              ; preds = %132
  %140 = load i32, i32* %9, align 4
  %141 = add nsw i32 %140, 1
  store i32 %141, i32* %9, align 4
  br label %128

142:                                              ; preds = %128
  store i32 0, i32* %9, align 4
  br label %143

143:                                              ; preds = %154, %142
  %144 = load i32, i32* %9, align 4
  %145 = load i32, i32* %8, align 4
  %146 = icmp slt i32 %144, %145
  br i1 %146, label %147, label %157

147:                                              ; preds = %143
  %148 = load i32*, i32** %6, align 8
  %149 = load i32, i32* %9, align 4
  %150 = sext i32 %149 to i64
  %151 = getelementptr inbounds i32, i32* %148, i64 %150
  %152 = load i32, i32* %151, align 4
  %153 = call i32 (i8*, ...) @printf(i8* getelementptr inbounds ([4 x i8], [4 x i8]* @.str.1, i64 0, i64 0), i32 %152)
  br label %154

154:                                              ; preds = %147
  %155 = load i32, i32* %9, align 4
  %156 = add nsw i32 %155, 1
  store i32 %156, i32* %9, align 4
  br label %143

157:                                              ; preds = %143
  ret void
}

declare dso_local i32 @printf(i8*, ...) #1

; Function Attrs: noinline nounwind uwtable
define dso_local void @main() #0 {
  %1 = alloca [15 x i32], align 16
  %2 = alloca [15 x i32], align 16
  %3 = alloca i32, align 4
  %4 = alloca i32, align 4
  %5 = alloca i32, align 4
  %6 = call i32 (i8*, ...) @__isoc99_scanf(i8* getelementptr inbounds ([5 x i8], [5 x i8]* @.str.2, i64 0, i64 0), i32* %3, i32* %4)
  store i32 0, i32* %5, align 4
  br label %7

7:                                                ; preds = %16, %0
  %8 = load i32, i32* %5, align 4
  %9 = load i32, i32* %3, align 4
  %10 = icmp slt i32 %8, %9
  br i1 %10, label %11, label %19

11:                                               ; preds = %7
  %12 = load i32, i32* %5, align 4
  %13 = sext i32 %12 to i64
  %14 = getelementptr inbounds [15 x i32], [15 x i32]* %1, i64 0, i64 %13
  %15 = call i32 (i8*, ...) @__isoc99_scanf(i8* getelementptr inbounds ([3 x i8], [3 x i8]* @.str, i64 0, i64 0), i32* %14)
  br label %16

16:                                               ; preds = %11
  %17 = load i32, i32* %5, align 4
  %18 = add nsw i32 %17, 1
  store i32 %18, i32* %5, align 4
  br label %7

19:                                               ; preds = %7
  store i32 0, i32* %5, align 4
  br label %20

20:                                               ; preds = %29, %19
  %21 = load i32, i32* %5, align 4
  %22 = load i32, i32* %4, align 4
  %23 = icmp slt i32 %21, %22
  br i1 %23, label %24, label %32

24:                                               ; preds = %20
  %25 = load i32, i32* %5, align 4
  %26 = sext i32 %25 to i64
  %27 = getelementptr inbounds [15 x i32], [15 x i32]* %2, i64 0, i64 %26
  %28 = call i32 (i8*, ...) @__isoc99_scanf(i8* getelementptr inbounds ([3 x i8], [3 x i8]* @.str, i64 0, i64 0), i32* %27)
  br label %29

29:                                               ; preds = %24
  %30 = load i32, i32* %5, align 4
  %31 = add nsw i32 %30, 1
  store i32 %31, i32* %5, align 4
  br label %20

32:                                               ; preds = %20
  %33 = getelementptr inbounds [15 x i32], [15 x i32]* %1, i64 0, i64 0
  %34 = getelementptr inbounds [15 x i32], [15 x i32]* %2, i64 0, i64 0
  %35 = load i32, i32* %3, align 4
  %36 = load i32, i32* %4, align 4
  call void @f1(i32* %33, i32* %34, i32 %35, i32 %36)
  ret void
}

declare dso_local i32 @__isoc99_scanf(i8*, ...) #1


!llvm.module.flags = !{!0}
!llvm.ident = !{!1}

!0 = !{i32 1, !"wchar_size", i32 4}
!1 = !{!"clang version 10.0.0-4ubuntu1 "}
